#include <math.h>
#include <stdio.h>
#include <stdlib.h>
#include <string.h>

int main()
{
	int m,i,j,n,x,y,temp;
	double sum,a,b;
	scanf("%d",&m);
	for(i=0;i<m;i++){
		scanf("%d",&n);
		sum=0.0;
		x=1,y=2;
		for(j=1;j<=n;j++){
			sum=sum+(double)y/x;
			temp=x;
			x=y;
			y=x+temp;
		}
		printf("%.3lf\n",sum);
	}
	return 0;
}